target datalayout = "e-m:e-p270:32:32-p271:32:32-p272:64:64-i64:64-i128:128-f80:128-n8:16:32:64-S128"
target triple = "x86_64-pc-linux-gnu"

%struct.pcre2_memctl = type { ptr, ptr, ptr }
%struct.pcre2_real_code_8 = type { %struct.pcre2_memctl, ptr, ptr, [32 x i8], i64, i32, i32, i32, i32, i32, i32, i32, i32, i32, i32, i16, i16, i16, i16, i16, i16, i16, i16 }

; Function Attrs: nounwind uwtable
define ptr @php_pcre2_code_copy_with_tables(ptr noundef %0) #0 {
  %2 = alloca ptr, align 8
  %3 = alloca ptr, align 8
  %4 = alloca ptr, align 8
  %5 = alloca ptr, align 8
  %6 = alloca ptr, align 8
  store ptr %0, ptr %3, align 8
  %7 = load ptr, ptr %3, align 8
  %8 = icmp eq ptr %7, null
  br i1 %8, label %9, label %10

9:                                                ; preds = %1
  store ptr null, ptr %2, align 8
  br label %71

10:                                               ; preds = %1
  %11 = load ptr, ptr %3, align 8
  %12 = getelementptr inbounds %struct.pcre2_real_code_8, ptr %11, i32 0, i32 0
  %13 = getelementptr inbounds %struct.pcre2_memctl, ptr %12, i32 0, i32 0
  %14 = load ptr, ptr %13, align 8
  %15 = load ptr, ptr %3, align 8
  %16 = getelementptr inbounds %struct.pcre2_real_code_8, ptr %15, i32 0, i32 4
  %17 = load i64, ptr %16, align 8
  %18 = load ptr, ptr %3, align 8
  %19 = getelementptr inbounds %struct.pcre2_real_code_8, ptr %18, i32 0, i32 0
  %20 = getelementptr inbounds %struct.pcre2_memctl, ptr %19, i32 0, i32 2
  %21 = load ptr, ptr %20, align 8
  %22 = call ptr %14(i64 noundef %17, ptr noundef %21)
  store ptr %22, ptr %5, align 8
  %23 = load ptr, ptr %5, align 8
  %24 = icmp eq ptr %23, null
  br i1 %24, label %25, label %26

25:                                               ; preds = %10
  store ptr null, ptr %2, align 8
  br label %71

26:                                               ; preds = %10
  %27 = load ptr, ptr %5, align 8
  %28 = load ptr, ptr %3, align 8
  %29 = load ptr, ptr %3, align 8
  %30 = getelementptr inbounds %struct.pcre2_real_code_8, ptr %29, i32 0, i32 4
  %31 = load i64, ptr %30, align 8
  call void @llvm.memcpy.p0.p0.i64(ptr align 8 %27, ptr align 8 %28, i64 %31, i1 false)
  %32 = load ptr, ptr %5, align 8
  %33 = getelementptr inbounds %struct.pcre2_real_code_8, ptr %32, i32 0, i32 2
  store ptr null, ptr %33, align 8
  %34 = load ptr, ptr %3, align 8
  %35 = getelementptr inbounds %struct.pcre2_real_code_8, ptr %34, i32 0, i32 0
  %36 = getelementptr inbounds %struct.pcre2_memctl, ptr %35, i32 0, i32 0
  %37 = load ptr, ptr %36, align 8
  %38 = load ptr, ptr %3, align 8
  %39 = getelementptr inbounds %struct.pcre2_real_code_8, ptr %38, i32 0, i32 0
  %40 = getelementptr inbounds %struct.pcre2_memctl, ptr %39, i32 0, i32 2
  %41 = load ptr, ptr %40, align 8
  %42 = call ptr %37(i64 noundef 1096, ptr noundef %41)
  store ptr %42, ptr %6, align 8
  %43 = load ptr, ptr %6, align 8
  %44 = icmp eq ptr %43, null
  br i1 %44, label %45, label %55

45:                                               ; preds = %26
  %46 = load ptr, ptr %3, align 8
  %47 = getelementptr inbounds %struct.pcre2_real_code_8, ptr %46, i32 0, i32 0
  %48 = getelementptr inbounds %struct.pcre2_memctl, ptr %47, i32 0, i32 1
  %49 = load ptr, ptr %48, align 8
  %50 = load ptr, ptr %5, align 8
  %51 = load ptr, ptr %3, align 8
  %52 = getelementptr inbounds %struct.pcre2_real_code_8, ptr %51, i32 0, i32 0
  %53 = getelementptr inbounds %struct.pcre2_memctl, ptr %52, i32 0, i32 2
  %54 = load ptr, ptr %53, align 8
  call void %49(ptr noundef %50, ptr noundef %54)
  store ptr null, ptr %2, align 8
  br label %71

55:                                               ; preds = %26
  %56 = load ptr, ptr %6, align 8
  %57 = load ptr, ptr %3, align 8
  %58 = getelementptr inbounds %struct.pcre2_real_code_8, ptr %57, i32 0, i32 1
  %59 = load ptr, ptr %58, align 8
  call void @llvm.memcpy.p0.p0.i64(ptr align 1 %56, ptr align 1 %59, i64 1088, i1 false)
  %60 = load ptr, ptr %6, align 8
  %61 = getelementptr inbounds i8, ptr %60, i64 1088
  store ptr %61, ptr %4, align 8
  %62 = load ptr, ptr %4, align 8
  store i64 1, ptr %62, align 8
  %63 = load ptr, ptr %6, align 8
  %64 = load ptr, ptr %5, align 8
  %65 = getelementptr inbounds %struct.pcre2_real_code_8, ptr %64, i32 0, i32 1
  store ptr %63, ptr %65, align 8
  %66 = load ptr, ptr %5, align 8
  %67 = getelementptr inbounds %struct.pcre2_real_code_8, ptr %66, i32 0, i32 9
  %68 = load i32, ptr %67, align 8
  %69 = or i32 %68, 262144
  store i32 %69, ptr %67, align 8
  %70 = load ptr, ptr %5, align 8
  store ptr %70, ptr %2, align 8
  br label %71

71:                                               ; preds = %55, %45, %25, %9
  %72 = load ptr, ptr %2, align 8
  ret ptr %72
}