; Function Attrs: nounwind uwtable
define ptr @php_pcre2_code_copy_with_tables(ptr noundef readonly %0) local_unnamed_addr #0 {
  %2 = icmp eq ptr %0, null
  br i1 %2, label %30, label %3

3:                                                ; preds = %1
  %4 = load ptr, ptr %0, align 8
  %5 = getelementptr inbounds i8, ptr %0, i64 72
  %6 = load i64, ptr %5, align 8
  %7 = getelementptr inbounds i8, ptr %0, i64 16
  %8 = load ptr, ptr %7, align 8
  %9 = tail call ptr %4(i64 noundef %6, ptr noundef %8) #16
  %10 = icmp eq ptr %9, null
  br i1 %10, label %30, label %11

11:                                               ; preds = %3
  %12 = load i64, ptr %5, align 8
  tail call void @llvm.memcpy.p0.p0.i64(ptr nonnull align 8 %9, ptr nonnull align 8 %0, i64 %12, i1 false)
  %13 = getelementptr inbounds i8, ptr %9, i64 32
  store ptr null, ptr %13, align 8
  %14 = load ptr, ptr %0, align 8
  %15 = load ptr, ptr %7, align 8
  %16 = tail call ptr %14(i64 noundef 1096, ptr noundef %15) #16
  %17 = icmp eq ptr %16, null
  br i1 %17, label %18, label %22

18:                                               ; preds = %11
  %19 = getelementptr inbounds i8, ptr %0, i64 8
  %20 = load ptr, ptr %19, align 8
  %21 = load ptr, ptr %7, align 8
  tail call void %20(ptr noundef nonnull %9, ptr noundef %21) #16
  br label %30

22:                                               ; preds = %11
  %23 = getelementptr inbounds i8, ptr %0, i64 24
  %24 = load ptr, ptr %23, align 8
  tail call void @llvm.memcpy.p0.p0.i64(ptr noundef nonnull align 1 dereferenceable(1088) %16, ptr noundef nonnull align 1 dereferenceable(1088) %24, i64 1088, i1 false)
  %25 = getelementptr inbounds i8, ptr %16, i64 1088
  store i64 1, ptr %25, align 8
  %26 = getelementptr inbounds i8, ptr %9, i64 24
  store ptr %16, ptr %26, align 8
  %27 = getelementptr inbounds i8, ptr %9, i64 96
  %28 = load i32, ptr %27, align 8
  %29 = or i32 %28, 262144
  store i32 %29, ptr %27, align 8
  br label %30

30:                                               ; preds = %3, %1, %22, %18
  %.0 = phi ptr [ null, %18 ], [ %9, %22 ], [ null, %1 ], [ null, %3 ]
  ret ptr %.0
}